target datalayout = "e-m:e-p270:32:32-p271:32:32-p272:64:64-i64:64-i128:128-f80:128-n8:16:32:64-S128"
target triple = "x86_64-unknown-linux-gnu"

%struct.AcpiBuildTables = type { ptr, ptr, ptr, ptr, ptr, ptr }
%struct.AcpiBuildState = type { ptr, ptr, ptr, i8 }
%struct.BIOSLinker = type { ptr, ptr }
%struct._GArray = type { ptr, i32 }

@.str.23 = private unnamed_addr constant [13 x i8] c"virt-machine\00", align 1
@.str.24 = private unnamed_addr constant [102 x i8] c"/home/dtcxzyw/WorkSpace/Projects/compilers/llvm-opt-benchmark/bench/qemu/qemu/include/hw/riscv/virt.h\00", align 1
@__func__.RISCV_VIRT_MACHINE = private unnamed_addr constant [19 x i8] c"RISCV_VIRT_MACHINE\00", align 1
@error_abort = external global ptr, align 8

; Function Attrs: nounwind sspstrong uwtable
define internal void @acpi_ram_update(ptr noundef %mr, ptr noundef %data) #0 {
entry:
  %mr.addr = alloca ptr, align 8
  %data.addr = alloca ptr, align 8
  %size = alloca i32, align 4
  store ptr %mr, ptr %mr.addr, align 8
  store ptr %data, ptr %data.addr, align 8
  %0 = load ptr, ptr %data.addr, align 8
  %call = call i32 @acpi_data_len(ptr noundef %0)
  store i32 %call, ptr %size, align 4
  %1 = load ptr, ptr %mr.addr, align 8
  %2 = load i32, ptr %size, align 4
  %conv = zext i32 %2 to i64
  call void @memory_region_ram_resize(ptr noundef %1, i64 noundef %conv, ptr noundef @error_abort)
  %3 = load ptr, ptr %mr.addr, align 8
  %call1 = call ptr @memory_region_get_ram_ptr(ptr noundef %3)
  %4 = load ptr, ptr %data.addr, align 8
  %data2 = getelementptr inbounds %struct._GArray, ptr %4, i32 0, i32 0
  %5 = load ptr, ptr %data2, align 8
  %6 = load i32, ptr %size, align 4
  %conv3 = zext i32 %6 to i64
  call void @llvm.memcpy.p0.p0.i64(ptr align 1 %call1, ptr align 1 %5, i64 %conv3, i1 false)
  %7 = load ptr, ptr %mr.addr, align 8
  %8 = load i32, ptr %size, align 4
  %conv4 = zext i32 %8 to i64
  call void @memory_region_set_dirty(ptr noundef %7, i64 noundef 0, i64 noundef %conv4)
  ret void
}

; Function Attrs: nounwind sspstrong uwtable
define internal ptr @RISCV_VIRT_MACHINE(ptr noundef %obj) #0 {
entry:
  %obj.addr = alloca ptr, align 8
  store ptr %obj, ptr %obj.addr, align 8
  %0 = load ptr, ptr %obj.addr, align 8
  %call = call ptr @object_dynamic_cast_assert(ptr noundef %0, ptr noundef @.str.23, ptr noundef @.str.24, i32 noundef 35, ptr noundef @__func__.RISCV_VIRT_MACHINE)
  ret ptr %call
}

; Function Attrs: nounwind sspstrong uwtable
define internal void @virt_acpi_build_update(ptr noundef %build_opaque) #0 {
entry:
  %build_opaque.addr = alloca ptr, align 8
  %build_state = alloca ptr, align 8
  %tables = alloca %struct.AcpiBuildTables, align 8
  store ptr %build_opaque, ptr %build_opaque.addr, align 8
  %0 = load ptr, ptr %build_opaque.addr, align 8
  store ptr %0, ptr %build_state, align 8
  %1 = load ptr, ptr %build_state, align 8
  %tobool = icmp ne ptr %1, null
  br i1 %tobool, label %lor.lhs.false, label %if.then

lor.lhs.false:                                    ; preds = %entry
  %2 = load ptr, ptr %build_state, align 8
  %patched = getelementptr inbounds %struct.AcpiBuildState, ptr %2, i32 0, i32 3
  %3 = load i8, ptr %patched, align 8
  %tobool1 = trunc i8 %3 to i1
  br i1 %tobool1, label %if.then, label %if.end

if.then:                                          ; preds = %lor.lhs.false, %entry
  br label %return

if.end:                                           ; preds = %lor.lhs.false
  %4 = load ptr, ptr %build_state, align 8
  %patched2 = getelementptr inbounds %struct.AcpiBuildState, ptr %4, i32 0, i32 3
  store i8 1, ptr %patched2, align 8
  call void @acpi_build_tables_init(ptr noundef %tables)
  %call = call ptr @qdev_get_machine()
  %call3 = call ptr @RISCV_VIRT_MACHINE(ptr noundef %call)
  call void @virt_acpi_build(ptr noundef %call3, ptr noundef %tables)
  %5 = load ptr, ptr %build_state, align 8
  %table_mr = getelementptr inbounds %struct.AcpiBuildState, ptr %5, i32 0, i32 0
  %6 = load ptr, ptr %table_mr, align 8
  %table_data = getelementptr inbounds %struct.AcpiBuildTables, ptr %tables, i32 0, i32 0
  %7 = load ptr, ptr %table_data, align 8
  call void @acpi_ram_update(ptr noundef %6, ptr noundef %7)
  %8 = load ptr, ptr %build_state, align 8
  %rsdp_mr = getelementptr inbounds %struct.AcpiBuildState, ptr %8, i32 0, i32 1
  %9 = load ptr, ptr %rsdp_mr, align 8
  %rsdp = getelementptr inbounds %struct.AcpiBuildTables, ptr %tables, i32 0, i32 1
  %10 = load ptr, ptr %rsdp, align 8
  call void @acpi_ram_update(ptr noundef %9, ptr noundef %10)
  %11 = load ptr, ptr %build_state, align 8
  %linker_mr = getelementptr inbounds %struct.AcpiBuildState, ptr %11, i32 0, i32 2
  %12 = load ptr, ptr %linker_mr, align 8
  %linker = getelementptr inbounds %struct.AcpiBuildTables, ptr %tables, i32 0, i32 5
  %13 = load ptr, ptr %linker, align 8
  %cmd_blob = getelementptr inbounds %struct.BIOSLinker, ptr %13, i32 0, i32 0
  %14 = load ptr, ptr %cmd_blob, align 8
  call void @acpi_ram_update(ptr noundef %12, ptr noundef %14)
  call void @acpi_build_tables_cleanup(ptr noundef %tables, i1 noundef zeroext true)
  br label %return

return:                                           ; preds = %if.end, %if.then
  ret void
}